; Function Attrs: mustprogress uwtable
define noundef ptr @ures_getString_75(ptr noundef readonly %resB, ptr noundef %len, ptr noundef %status) local_unnamed_addr #1 {
entry:
  %cmp = icmp eq ptr %status, null
  br i1 %cmp, label %return, label %lor.lhs.false

lor.lhs.false:                                    ; preds = %entry
  %0 = load i32, ptr %status, align 4
  %cmp.i = icmp slt i32 %0, 1
  br i1 %cmp.i, label %if.end, label %return

if.end:                                           ; preds = %lor.lhs.false
  %cmp1 = icmp eq ptr %resB, null
  br i1 %cmp1, label %return.sink.split, label %if.end3

if.end3:                                          ; preds = %if.end
  %fData.i = getelementptr inbounds i8, ptr %resB, i64 8
  %1 = load ptr, ptr %fData.i, align 8
  %fData2.i = getelementptr inbounds i8, ptr %1, i64 40
  %fRes = getelementptr inbounds i8, ptr %resB, i64 108
  %2 = load i32, ptr %fRes, align 4
  %call.i = tail call noundef ptr @res_getStringNoTrace_75(ptr noundef nonnull %fData2.i, i32 noundef %2, ptr noundef %len)
  %cmp6 = icmp eq ptr %call.i, null
  br i1 %cmp6, label %return.sink.split, label %return

return.sink.split:                                ; preds = %if.end3, %if.end
  %.sink = phi i32 [ 1, %if.end ], [ 17, %if.end3 ]
  store i32 %.sink, ptr %status, align 4
  br label %return

return:                                           ; preds = %return.sink.split, %if.end3, %entry, %lor.lhs.false
  %retval.0 = phi ptr [ null, %lor.lhs.false ], [ null, %entry ], [ %call.i, %if.end3 ], [ null, %return.sink.split ]
  ret ptr %retval.0
}